target datalayout = "e-m:e-p270:32:32-p271:32:32-p272:64:64-i64:64-i128:128-f80:128-n8:16:32:64-S128"
target triple = "x86_64-pc-linux-gnu"

%struct.fstWriterContext = type { ptr, ptr, ptr, ptr, ptr, ptr, ptr, i64, ptr, ptr, ptr, i32, ptr, i32, i32, i32, i8, i64, i64, i32, i32, i64, i64, i32, i32, i32, i64, i32, double, ptr, ptr, i32, i64, i8, i8, i8, i8, i8, i64, i64, i64, i64, i64, i32, ptr, i32, i8, ptr, ptr, ptr, ptr, i32 }

@stderr = external global ptr, align 8
@.str.16 = private unnamed_addr constant [74 x i8] c"FSTAPI  | Could not realloc() in fstWriterEmitValueChangeVec32, exiting.\0A\00", align 1

; Function Attrs: mustprogress uwtable
define void @fstWriterEmitValueChangeVec32(ptr noundef %0, i32 noundef %1, i32 noundef %2, ptr noundef %3) #0 {
  %5 = alloca ptr, align 8
  %6 = alloca i32, align 4
  %7 = alloca i32, align 4
  %8 = alloca ptr, align 8
  %9 = alloca ptr, align 8
  %10 = alloca i32, align 4
  %11 = alloca i32, align 4
  %12 = alloca i32, align 4
  %13 = alloca i32, align 4
  %14 = alloca i32, align 4
  %15 = alloca ptr, align 8
  store ptr %0, ptr %5, align 8, !tbaa !50
  store i32 %1, ptr %6, align 4, !tbaa !11
  store i32 %2, ptr %7, align 4, !tbaa !11
  store ptr %3, ptr %8, align 8, !tbaa !82
  call void @llvm.lifetime.start.p0(i64 8, ptr %9) #15
  %16 = load ptr, ptr %5, align 8, !tbaa !50
  store ptr %16, ptr %9, align 8, !tbaa !13
  %17 = load i32, ptr %7, align 4, !tbaa !11
  %18 = icmp ule i32 %17, 32
  %19 = xor i1 %18, true
  %20 = xor i1 %19, true
  %21 = zext i1 %20 to i64
  %22 = call i64 @llvm.expect.i64(i64 %21, i64 0)
  %23 = icmp ne i64 %22, 0
  br i1 %23, label %24, label %31

24:                                               ; preds = %4
  %25 = load ptr, ptr %5, align 8, !tbaa !50
  %26 = load i32, ptr %6, align 4, !tbaa !11
  %27 = load i32, ptr %7, align 4, !tbaa !11
  %28 = load ptr, ptr %8, align 8, !tbaa !82
  %29 = getelementptr inbounds i32, ptr %28, i64 0
  %30 = load i32, ptr %29, align 4, !tbaa !11
  call void @fstWriterEmitValueChange32(ptr noundef %25, i32 noundef %26, i32 noundef %27, i32 noundef %30)
  br label %181

31:                                               ; preds = %4
  %32 = load ptr, ptr %9, align 8, !tbaa !13
  %33 = icmp ne ptr %32, null
  %34 = xor i1 %33, true
  %35 = xor i1 %34, true
  %36 = zext i1 %35 to i64
  %37 = call i64 @llvm.expect.i64(i64 %36, i64 1)
  %38 = icmp ne i64 %37, 0
  br i1 %38, label %39, label %180

39:                                               ; preds = %31
  call void @llvm.lifetime.start.p0(i64 4, ptr %10) #15
  %40 = load i32, ptr %7, align 4, !tbaa !11
  %41 = udiv i32 %40, 32
  store i32 %41, ptr %10, align 4, !tbaa !11
  call void @llvm.lifetime.start.p0(i64 4, ptr %11) #15
  %42 = load i32, ptr %7, align 4, !tbaa !11
  %43 = and i32 %42, 31
  store i32 %43, ptr %11, align 4, !tbaa !11
  call void @llvm.lifetime.start.p0(i64 4, ptr %12) #15
  call void @llvm.lifetime.start.p0(i64 4, ptr %13) #15
  call void @llvm.lifetime.start.p0(i64 4, ptr %14) #15
  call void @llvm.lifetime.start.p0(i64 8, ptr %15) #15
  %44 = load i32, ptr %7, align 4, !tbaa !11
  %45 = load ptr, ptr %9, align 8, !tbaa !13
  %46 = getelementptr inbounds nuw %struct.fstWriterContext, ptr %45, i32 0, i32 11
  %47 = load i32, ptr %46, align 8, !tbaa !61
  %48 = icmp ugt i32 %44, %47
  %49 = xor i1 %48, true
  %50 = xor i1 %49, true
  %51 = zext i1 %50 to i64
  %52 = call i64 @llvm.expect.i64(i64 %51, i64 0)
  %53 = icmp ne i64 %52, 0
  br i1 %53, label %54, label %84

54:                                               ; preds = %39
  %55 = load i32, ptr %7, align 4, !tbaa !11
  %56 = mul i32 %55, 2
  %57 = add i32 %56, 1
  %58 = load ptr, ptr %9, align 8, !tbaa !13
  %59 = getelementptr inbounds nuw %struct.fstWriterContext, ptr %58, i32 0, i32 11
  store i32 %57, ptr %59, align 8, !tbaa !61
  %60 = load ptr, ptr %9, align 8, !tbaa !13
  %61 = getelementptr inbounds nuw %struct.fstWriterContext, ptr %60, i32 0, i32 10
  %62 = load ptr, ptr %61, align 8, !tbaa !60
  %63 = load ptr, ptr %9, align 8, !tbaa !13
  %64 = getelementptr inbounds nuw %struct.fstWriterContext, ptr %63, i32 0, i32 11
  %65 = load i32, ptr %64, align 8, !tbaa !61
  %66 = zext i32 %65 to i64
  %67 = call ptr @realloc(ptr noundef %62, i64 noundef %66) #20
  %68 = load ptr, ptr %9, align 8, !tbaa !13
  %69 = getelementptr inbounds nuw %struct.fstWriterContext, ptr %68, i32 0, i32 10
  store ptr %67, ptr %69, align 8, !tbaa !60
  %70 = load ptr, ptr %9, align 8, !tbaa !13
  %71 = getelementptr inbounds nuw %struct.fstWriterContext, ptr %70, i32 0, i32 10
  %72 = load ptr, ptr %71, align 8, !tbaa !60
  %73 = icmp ne ptr %72, null
  %74 = xor i1 %73, true
  %75 = xor i1 %74, true
  %76 = xor i1 %75, true
  %77 = zext i1 %76 to i64
  %78 = call i64 @llvm.expect.i64(i64 %77, i64 0)
  %79 = icmp ne i64 %78, 0
  br i1 %79, label %80, label %83

80:                                               ; preds = %54
  %81 = load ptr, ptr @stderr, align 8, !tbaa !33
  %82 = call i32 (ptr, ptr, ...) @fprintf(ptr noundef %81, ptr noundef @.str.16) #15
  call void @exit(i32 noundef 255) #21
  unreachable

83:                                               ; preds = %54
  br label %84

84:                                               ; preds = %83, %39
  %85 = load ptr, ptr %9, align 8, !tbaa !13
  %86 = getelementptr inbounds nuw %struct.fstWriterContext, ptr %85, i32 0, i32 10
  %87 = load ptr, ptr %86, align 8, !tbaa !60
  store ptr %87, ptr %15, align 8, !tbaa !6
  %88 = load i32, ptr %10, align 4, !tbaa !11
  store i32 %88, ptr %13, align 4, !tbaa !11
  %89 = load ptr, ptr %8, align 8, !tbaa !82
  %90 = load i32, ptr %13, align 4, !tbaa !11
  %91 = sext i32 %90 to i64
  %92 = getelementptr inbounds i32, ptr %89, i64 %91
  %93 = load i32, ptr %92, align 4, !tbaa !11
  store i32 %93, ptr %14, align 4, !tbaa !11
  store i32 0, ptr %12, align 4, !tbaa !11
  br label %94

94:                                               ; preds = %110, %84
  %95 = load i32, ptr %12, align 4, !tbaa !11
  %96 = load i32, ptr %11, align 4, !tbaa !11
  %97 = icmp slt i32 %95, %96
  br i1 %97, label %98, label %113

98:                                               ; preds = %94
  %99 = load i32, ptr %14, align 4, !tbaa !11
  %100 = load i32, ptr %11, align 4, !tbaa !11
  %101 = load i32, ptr %12, align 4, !tbaa !11
  %102 = sub nsw i32 %100, %101
  %103 = sub nsw i32 %102, 1
  %104 = lshr i32 %99, %103
  %105 = and i32 %104, 1
  %106 = add i32 48, %105
  %107 = trunc i32 %106 to i8
  %108 = load ptr, ptr %15, align 8, !tbaa !6
  %109 = getelementptr inbounds nuw i8, ptr %108, i32 1
  store ptr %109, ptr %15, align 8, !tbaa !6
  store i8 %107, ptr %108, align 1, !tbaa !34
  br label %110

110:                                              ; preds = %98
  %111 = load i32, ptr %12, align 4, !tbaa !11
  %112 = add nsw i32 %111, 1
  store i32 %112, ptr %12, align 4, !tbaa !11
  br label %94, !llvm.loop !136

113:                                              ; preds = %94
  %114 = load i32, ptr %10, align 4, !tbaa !11
  %115 = sub nsw i32 %114, 1
  store i32 %115, ptr %13, align 4, !tbaa !11
  br label %116

116:                                              ; preds = %171, %113
  %117 = load i32, ptr %13, align 4, !tbaa !11
  %118 = icmp sge i32 %117, 0
  br i1 %118, label %119, label %174

119:                                              ; preds = %116
  %120 = load ptr, ptr %8, align 8, !tbaa !82
  %121 = load i32, ptr %13, align 4, !tbaa !11
  %122 = sext i32 %121 to i64
  %123 = getelementptr inbounds i32, ptr %120, i64 %122
  %124 = load i32, ptr %123, align 4, !tbaa !11
  store i32 %124, ptr %14, align 4, !tbaa !11
  store i32 28, ptr %12, align 4, !tbaa !11
  br label %125

125:                                              ; preds = %167, %119
  %126 = load i32, ptr %12, align 4, !tbaa !11
  %127 = icmp sge i32 %126, 0
  br i1 %127, label %128, label %170

128:                                              ; preds = %125
  %129 = load i32, ptr %14, align 4, !tbaa !11
  %130 = load i32, ptr %12, align 4, !tbaa !11
  %131 = add nsw i32 %130, 3
  %132 = lshr i32 %129, %131
  %133 = and i32 %132, 1
  %134 = add i32 48, %133
  %135 = trunc i32 %134 to i8
  %136 = load ptr, ptr %15, align 8, !tbaa !6
  %137 = getelementptr inbounds i8, ptr %136, i64 0
  store i8 %135, ptr %137, align 1, !tbaa !34
  %138 = load i32, ptr %14, align 4, !tbaa !11
  %139 = load i32, ptr %12, align 4, !tbaa !11
  %140 = add nsw i32 %139, 2
  %141 = lshr i32 %138, %140
  %142 = and i32 %141, 1
  %143 = add i32 48, %142
  %144 = trunc i32 %143 to i8
  %145 = load ptr, ptr %15, align 8, !tbaa !6
  %146 = getelementptr inbounds i8, ptr %145, i64 1
  store i8 %144, ptr %146, align 1, !tbaa !34
  %147 = load i32, ptr %14, align 4, !tbaa !11
  %148 = load i32, ptr %12, align 4, !tbaa !11
  %149 = add nsw i32 %148, 1
  %150 = lshr i32 %147, %149
  %151 = and i32 %150, 1
  %152 = add i32 48, %151
  %153 = trunc i32 %152 to i8
  %154 = load ptr, ptr %15, align 8, !tbaa !6
  %155 = getelementptr inbounds i8, ptr %154, i64 2
  store i8 %153, ptr %155, align 1, !tbaa !34
  %156 = load i32, ptr %14, align 4, !tbaa !11
  %157 = load i32, ptr %12, align 4, !tbaa !11
  %158 = add nsw i32 %157, 0
  %159 = lshr i32 %156, %158
  %160 = and i32 %159, 1
  %161 = add i32 48, %160
  %162 = trunc i32 %161 to i8
  %163 = load ptr, ptr %15, align 8, !tbaa !6
  %164 = getelementptr inbounds i8, ptr %163, i64 3
  store i8 %162, ptr %164, align 1, !tbaa !34
  %165 = load ptr, ptr %15, align 8, !tbaa !6
  %166 = getelementptr inbounds i8, ptr %165, i64 4
  store ptr %166, ptr %15, align 8, !tbaa !6
  br label %167

167:                                              ; preds = %128
  %168 = load i32, ptr %12, align 4, !tbaa !11
  %169 = sub nsw i32 %168, 4
  store i32 %169, ptr %12, align 4, !tbaa !11
  br label %125, !llvm.loop !137

170:                                              ; preds = %125
  br label %171

171:                                              ; preds = %170
  %172 = load i32, ptr %13, align 4, !tbaa !11
  %173 = add nsw i32 %172, -1
  store i32 %173, ptr %13, align 4, !tbaa !11
  br label %116, !llvm.loop !138

174:                                              ; preds = %116
  %175 = load ptr, ptr %5, align 8, !tbaa !50
  %176 = load i32, ptr %6, align 4, !tbaa !11
  %177 = load ptr, ptr %9, align 8, !tbaa !13
  %178 = getelementptr inbounds nuw %struct.fstWriterContext, ptr %177, i32 0, i32 10
  %179 = load ptr, ptr %178, align 8, !tbaa !60
  call void @fstWriterEmitValueChange(ptr noundef %175, i32 noundef %176, ptr noundef %179)
  call void @llvm.lifetime.end.p0(i64 8, ptr %15) #15
  call void @llvm.lifetime.end.p0(i64 4, ptr %14) #15
  call void @llvm.lifetime.end.p0(i64 4, ptr %13) #15
  call void @llvm.lifetime.end.p0(i64 4, ptr %12) #15
  call void @llvm.lifetime.end.p0(i64 4, ptr %11) #15
  call void @llvm.lifetime.end.p0(i64 4, ptr %10) #15
  br label %180

180:                                              ; preds = %174, %31
  br label %181

181:                                              ; preds = %180, %24
  call void @llvm.lifetime.end.p0(i64 8, ptr %9) #15
  ret void
}