; Function Attrs: mustprogress nounwind uwtable
define void @fstWriterEmitValueChangeVec32(ptr noundef captures(address_is_null) %0, i32 noundef %1, i32 noundef %2, ptr noundef readonly captures(none) %3) local_unnamed_addr #0 {
  %5 = icmp ult i32 %2, 33
  br i1 %5, label %6, label %8, !prof !85

6:                                                ; preds = %4
  %7 = load i32, ptr %3, align 4, !tbaa !51
  tail call void @fstWriterEmitValueChange32(ptr noundef %0, i32 noundef %1, i32 noundef %2, i32 noundef %7)
  br label %70

8:                                                ; preds = %4
  %.not = icmp eq ptr %0, null
  br i1 %.not, label %70, label %9, !prof !85

9:                                                ; preds = %8
  %10 = lshr i32 %2, 5
  %11 = and i32 %2, 31
  %12 = getelementptr inbounds nuw i8, ptr %0, i64 88
  %13 = load i32, ptr %12, align 8, !tbaa !55
  %14 = icmp ugt i32 %2, %13
  br i1 %14, label %15, label %._crit_edge69, !prof !85

._crit_edge69:                                    ; preds = %9
  %.phi.trans.insert = getelementptr inbounds nuw i8, ptr %0, i64 80
  %.pre = load ptr, ptr %.phi.trans.insert, align 8, !tbaa !54
  br label %25

15:                                               ; preds = %9
  %16 = shl i32 %2, 1
  %17 = or disjoint i32 %16, 1
  store i32 %17, ptr %12, align 8, !tbaa !55
  %18 = getelementptr inbounds nuw i8, ptr %0, i64 80
  %19 = load ptr, ptr %18, align 8, !tbaa !54
  %20 = zext i32 %17 to i64
  %21 = tail call ptr @realloc(ptr noundef %19, i64 noundef %20) #45
  store ptr %21, ptr %18, align 8, !tbaa !54
  %.not57 = icmp eq ptr %21, null
  br i1 %.not57, label %22, label %25, !prof !85

22:                                               ; preds = %15
  %23 = load ptr, ptr @stderr, align 8, !tbaa !41
  %24 = tail call i64 @fwrite(ptr nonnull @.str.16, i64 73, i64 1, ptr %23) #44
  tail call void @exit(i32 noundef 255) #46
  unreachable

25:                                               ; preds = %._crit_edge69, %15
  %26 = phi ptr [ %.pre, %._crit_edge69 ], [ %21, %15 ]
  %27 = getelementptr inbounds nuw i8, ptr %0, i64 80
  %28 = zext nneg i32 %10 to i64
  %29 = getelementptr inbounds nuw i32, ptr %3, i64 %28
  %30 = load i32, ptr %29, align 4, !tbaa !51
  %.not66 = icmp eq i32 %11, 0
  br i1 %.not66, label %.lr.ph65.preheader, label %.lr.ph

.lr.ph65.preheader:                               ; preds = %.lr.ph, %25
  %.0.lcssa = phi ptr [ %26, %25 ], [ %39, %.lr.ph ]
  %31 = lshr i32 %2, 5
  %32 = zext nneg i32 %31 to i64
  br label %.lr.ph65

.lr.ph:                                           ; preds = %25, %.lr.ph
  %.059 = phi ptr [ %39, %.lr.ph ], [ %26, %25 ]
  %.05158 = phi i32 [ %40, %.lr.ph ], [ 0, %25 ]
  %33 = xor i32 %.05158, -1
  %34 = add nsw i32 %11, %33
  %35 = lshr i32 %30, %34
  %36 = trunc i32 %35 to i8
  %37 = and i8 %36, 1
  %38 = or disjoint i8 %37, 48
  %39 = getelementptr inbounds nuw i8, ptr %.059, i64 1
  store i8 %38, ptr %.059, align 1, !tbaa !6
  %40 = add nuw nsw i32 %.05158, 1
  %exitcond.not = icmp eq i32 %40, %11
  br i1 %exitcond.not, label %.lr.ph65.preheader, label %.lr.ph, !llvm.loop !116

.loopexit:                                        ; preds = %44
  %41 = icmp samesign ugt i64 %indvars.iv, 1
  br i1 %41, label %.lr.ph65, label %._crit_edge, !llvm.loop !117

.lr.ph65:                                         ; preds = %.lr.ph65.preheader, %.loopexit
  %indvars.iv = phi i64 [ %32, %.lr.ph65.preheader ], [ %indvars.iv.next, %.loopexit ]
  %.163 = phi ptr [ %.0.lcssa, %.lr.ph65.preheader ], [ %67, %.loopexit ]
  %indvars.iv.next = add nsw i64 %indvars.iv, -1
  %42 = getelementptr inbounds nuw i32, ptr %3, i64 %indvars.iv.next
  %43 = load i32, ptr %42, align 4, !tbaa !51
  br label %44

44:                                               ; preds = %.lr.ph65, %44
  %.261 = phi ptr [ %.163, %.lr.ph65 ], [ %67, %44 ]
  %.15260 = phi i32 [ 28, %.lr.ph65 ], [ %68, %44 ]
  %45 = or disjoint i32 %.15260, 3
  %46 = lshr i32 %43, %45
  %47 = trunc i32 %46 to i8
  %48 = and i8 %47, 1
  %49 = or disjoint i8 %48, 48
  store i8 %49, ptr %.261, align 1, !tbaa !6
  %50 = or disjoint i32 %.15260, 2
  %51 = lshr i32 %43, %50
  %52 = trunc i32 %51 to i8
  %53 = and i8 %52, 1
  %54 = or disjoint i8 %53, 48
  %55 = getelementptr inbounds nuw i8, ptr %.261, i64 1
  store i8 %54, ptr %55, align 1, !tbaa !6
  %56 = or disjoint i32 %.15260, 1
  %57 = lshr i32 %43, %56
  %58 = trunc i32 %57 to i8
  %59 = and i8 %58, 1
  %60 = or disjoint i8 %59, 48
  %61 = getelementptr inbounds nuw i8, ptr %.261, i64 2
  store i8 %60, ptr %61, align 1, !tbaa !6
  %62 = lshr i32 %43, %.15260
  %63 = trunc i32 %62 to i8
  %64 = and i8 %63, 1
  %65 = or disjoint i8 %64, 48
  %66 = getelementptr inbounds nuw i8, ptr %.261, i64 3
  store i8 %65, ptr %66, align 1, !tbaa !6
  %67 = getelementptr inbounds nuw i8, ptr %.261, i64 4
  %68 = add nsw i32 %.15260, -4
  %.not70 = icmp eq i32 %.15260, 0
  br i1 %.not70, label %.loopexit, label %44, !llvm.loop !118

._crit_edge:                                      ; preds = %.loopexit
  %69 = load ptr, ptr %27, align 8, !tbaa !54
  tail call void @fstWriterEmitValueChange(ptr noundef nonnull %0, i32 noundef %1, ptr noundef %69)
  br label %70

70:                                               ; preds = %8, %._crit_edge, %6
  ret void
}